; Function Attrs: mustprogress nofree norecurse nosync nounwind willreturn memory(readwrite, inaccessiblemem: none) uwtable
define void @Tim_ManBoxSetCopy(ptr noundef readonly captures(none) %0, i32 noundef %1, i32 noundef %2) local_unnamed_addr #4 {
  %.val = load ptr, ptr %0, align 8, !tbaa !3
  %4 = getelementptr i8, ptr %.val, i64 8
  %.val.val = load ptr, ptr %4, align 8, !tbaa !15
  %5 = sext i32 %1 to i64
  %6 = getelementptr inbounds ptr, ptr %.val.val, i64 %5
  %7 = load ptr, ptr %6, align 8, !tbaa !19
  %8 = getelementptr inbounds nuw i8, ptr %7, i64 20
  store i32 %2, ptr %8, align 4, !tbaa !37
  ret void
}